target datalayout = "e-m:e-p270:32:32-p271:32:32-p272:64:64-i64:64-i128:128-f80:128-n8:16:32:64-S128"
target triple = "x86_64-pc-linux-gnu"

%struct._object = type { %union.anon, ptr }
%union.anon = type { i64 }
%struct.stringio = type { %struct._object, ptr, i64, i64, i64, i32, ptr, i8, i8, i8, i8, ptr, ptr, ptr, ptr, ptr, ptr }

@PyExc_ValueError = external global ptr, align 8
@.str.2 = private unnamed_addr constant [38 x i8] c"I/O operation on uninitialized object\00", align 1
@.str.3 = private unnamed_addr constant [29 x i8] c"I/O operation on closed file\00", align 1

; Function Attrs: nounwind uwtable
define internal ptr @_io_StringIO_tell_impl(ptr noundef %0) #0 {
  %2 = alloca ptr, align 8
  %3 = alloca ptr, align 8
  store ptr %0, ptr %3, align 8, !tbaa !4
  %4 = load ptr, ptr %3, align 8, !tbaa !4
  %5 = getelementptr inbounds nuw %struct.stringio, ptr %4, i32 0, i32 7
  %6 = load i8, ptr %5, align 8, !tbaa !10
  %7 = sext i8 %6 to i32
  %8 = icmp sle i32 %7, 0
  br i1 %8, label %9, label %11

9:                                                ; preds = %1
  %10 = load ptr, ptr @PyExc_ValueError, align 8, !tbaa !37
  call void @PyErr_SetString(ptr noundef %10, ptr noundef @.str.2)
  store ptr null, ptr %2, align 8
  br label %23

11:                                               ; preds = %1
  %12 = load ptr, ptr %3, align 8, !tbaa !4
  %13 = getelementptr inbounds nuw %struct.stringio, ptr %12, i32 0, i32 8
  %14 = load i8, ptr %13, align 1, !tbaa !38
  %15 = icmp ne i8 %14, 0
  br i1 %15, label %16, label %18

16:                                               ; preds = %11
  %17 = load ptr, ptr @PyExc_ValueError, align 8, !tbaa !37
  call void @PyErr_SetString(ptr noundef %17, ptr noundef @.str.3)
  store ptr null, ptr %2, align 8
  br label %23

18:                                               ; preds = %11
  %19 = load ptr, ptr %3, align 8, !tbaa !4
  %20 = getelementptr inbounds nuw %struct.stringio, ptr %19, i32 0, i32 2
  %21 = load i64, ptr %20, align 8, !tbaa !52
  %22 = call ptr @PyLong_FromSsize_t(i64 noundef %21)
  store ptr %22, ptr %2, align 8
  br label %23

23:                                               ; preds = %18, %16, %9
  %24 = load ptr, ptr %2, align 8
  ret ptr %24
}

; Function Attrs: nounwind uwtable
define internal ptr @_io_StringIO_tell(ptr noundef %0, ptr noundef %1) #0 {
  %3 = alloca ptr, align 8
  %4 = alloca ptr, align 8
  %5 = alloca ptr, align 8
  store ptr %0, ptr %3, align 8, !tbaa !37
  store ptr %1, ptr %4, align 8, !tbaa !37
  call void @llvm.lifetime.start.p0(i64 8, ptr %5) #7
  store ptr null, ptr %5, align 8, !tbaa !37
  %6 = load ptr, ptr %3, align 8, !tbaa !37
  %7 = call ptr @_io_StringIO_tell_impl(ptr noundef %6)
  store ptr %7, ptr %5, align 8, !tbaa !37
  %8 = load ptr, ptr %5, align 8, !tbaa !37
  call void @llvm.lifetime.end.p0(i64 8, ptr %5) #7
  ret ptr %8
}