; Function Attrs: nounwind uwtable
define internal ptr @_io_StringIO_tell(ptr noundef readonly captures(none) %0, ptr readnone captures(none) %1) #0 {
  %3 = getelementptr inbounds nuw i8, ptr %0, i64 64
  %4 = load i8, ptr %3, align 8, !tbaa !14
  %5 = icmp slt i8 %4, 1
  br i1 %5, label %6, label %8

6:                                                ; preds = %2
  %7 = load ptr, ptr @PyExc_ValueError, align 8, !tbaa !37
  tail call void @PyErr_SetString(ptr noundef %7, ptr noundef nonnull @.str.2) #6
  br label %_io_StringIO_tell_impl.exit

8:                                                ; preds = %2
  %9 = getelementptr inbounds nuw i8, ptr %0, i64 65
  %10 = load i8, ptr %9, align 1, !tbaa !38
  %.not.i = icmp eq i8 %10, 0
  br i1 %.not.i, label %13, label %11

11:                                               ; preds = %8
  %12 = load ptr, ptr @PyExc_ValueError, align 8, !tbaa !37
  tail call void @PyErr_SetString(ptr noundef %12, ptr noundef nonnull @.str.3) #6
  br label %_io_StringIO_tell_impl.exit

13:                                               ; preds = %8
  %14 = getelementptr inbounds nuw i8, ptr %0, i64 24
  %15 = load i64, ptr %14, align 8, !tbaa !42
  %16 = tail call ptr @PyLong_FromSsize_t(i64 noundef %15) #6
  br label %_io_StringIO_tell_impl.exit

_io_StringIO_tell_impl.exit:                      ; preds = %6, %11, %13
  %.0.i = phi ptr [ null, %6 ], [ null, %11 ], [ %16, %13 ]
  ret ptr %.0.i
}